target datalayout = "e-m:e-p270:32:32-p271:32:32-p272:64:64-i64:64-i128:128-f80:128-n8:16:32:64-S128"
target triple = "x86_64-pc-linux-gnu"

%struct.Vec_Int_t_ = type { i32, i32, ptr }

@.str.11 = private unnamed_addr constant [3 x i8] c"wb\00", align 1
@.str.12 = private unnamed_addr constant [26 x i8] c"Cannot open output file.\0A\00", align 1

; Function Attrs: inlinehint nounwind uwtable
define internal i32 @Vec_IntEntry(ptr noundef %0, i32 noundef %1) #1 {
  %3 = alloca ptr, align 8
  %4 = alloca i32, align 4
  store ptr %0, ptr %3, align 8, !tbaa !22
  store i32 %1, ptr %4, align 4, !tbaa !8
  %5 = load ptr, ptr %3, align 8, !tbaa !22
  %6 = getelementptr inbounds nuw %struct.Vec_Int_t_, ptr %5, i32 0, i32 2
  %7 = load ptr, ptr %6, align 8, !tbaa !26
  %8 = load i32, ptr %4, align 4, !tbaa !8
  %9 = sext i32 %8 to i64
  %10 = getelementptr inbounds i32, ptr %7, i64 %9
  %11 = load i32, ptr %10, align 4, !tbaa !8
  ret i32 %11
}

; Function Attrs: inlinehint nounwind uwtable
define internal i32 @Vec_IntSize(ptr noundef %0) #1 {
  %2 = alloca ptr, align 8
  store ptr %0, ptr %2, align 8, !tbaa !22
  %3 = load ptr, ptr %2, align 8, !tbaa !22
  %4 = getelementptr inbounds nuw %struct.Vec_Int_t_, ptr %3, i32 0, i32 1
  %5 = load i32, ptr %4, align 4, !tbaa !23
  ret i32 %5
}

; Function Attrs: nounwind uwtable
define i32 @Gia_ManSimWriteFile(ptr noundef %0, ptr noundef %1, i32 noundef %2) #0 {
  %4 = alloca i32, align 4
  %5 = alloca ptr, align 8
  %6 = alloca ptr, align 8
  %7 = alloca i32, align 4
  %8 = alloca i32, align 4
  %9 = alloca i32, align 4
  %10 = alloca ptr, align 8
  %11 = alloca i32, align 4
  store ptr %0, ptr %5, align 8, !tbaa !52
  store ptr %1, ptr %6, align 8, !tbaa !22
  store i32 %2, ptr %7, align 4, !tbaa !8
  call void @llvm.lifetime.start.p0(i64 4, ptr %8) #11
  call void @llvm.lifetime.start.p0(i64 4, ptr %9) #11
  call void @llvm.lifetime.start.p0(i64 8, ptr %10) #11
  %12 = load ptr, ptr %5, align 8, !tbaa !52
  %13 = call noalias ptr @fopen(ptr noundef %12, ptr noundef @.str.11)
  store ptr %13, ptr %10, align 8, !tbaa !71
  %14 = load ptr, ptr %10, align 8, !tbaa !71
  %15 = icmp eq ptr %14, null
  br i1 %15, label %16, label %18

16:                                               ; preds = %3
  %17 = call i32 (ptr, ...) @printf(ptr noundef @.str.12)
  store i32 0, ptr %4, align 4
  store i32 1, ptr %11, align 4
  br label %51

18:                                               ; preds = %3
  store i32 0, ptr %9, align 4, !tbaa !8
  br label %19

19:                                               ; preds = %45, %18
  %20 = load i32, ptr %9, align 4, !tbaa !8
  %21 = load ptr, ptr %6, align 8, !tbaa !22
  %22 = call i32 @Vec_IntSize(ptr noundef %21)
  %23 = icmp slt i32 %20, %22
  br i1 %23, label %24, label %28

24:                                               ; preds = %19
  %25 = load ptr, ptr %6, align 8, !tbaa !22
  %26 = load i32, ptr %9, align 4, !tbaa !8
  %27 = call i32 @Vec_IntEntry(ptr noundef %25, i32 noundef %26)
  store i32 %27, ptr %8, align 4, !tbaa !8
  br label %28

28:                                               ; preds = %24, %19
  %29 = phi i1 [ false, %19 ], [ true, %24 ]
  br i1 %29, label %30, label %48

30:                                               ; preds = %28
  %31 = load i32, ptr %8, align 4, !tbaa !8
  %32 = add nsw i32 48, %31
  %33 = load ptr, ptr %10, align 8, !tbaa !71
  %34 = call i32 @fputc(i32 noundef %32, ptr noundef %33)
  %35 = load i32, ptr %9, align 4, !tbaa !8
  %36 = load i32, ptr %7, align 4, !tbaa !8
  %37 = srem i32 %35, %36
  %38 = load i32, ptr %7, align 4, !tbaa !8
  %39 = sub nsw i32 %38, 1
  %40 = icmp eq i32 %37, %39
  br i1 %40, label %41, label %44

41:                                               ; preds = %30
  %42 = load ptr, ptr %10, align 8, !tbaa !71
  %43 = call i32 @fputc(i32 noundef 10, ptr noundef %42)
  br label %44

44:                                               ; preds = %41, %30
  br label %45

45:                                               ; preds = %44
  %46 = load i32, ptr %9, align 4, !tbaa !8
  %47 = add nsw i32 %46, 1
  store i32 %47, ptr %9, align 4, !tbaa !8
  br label %19, !llvm.loop !104

48:                                               ; preds = %28
  %49 = load ptr, ptr %10, align 8, !tbaa !71
  %50 = call i32 @fclose(ptr noundef %49)
  store i32 1, ptr %4, align 4
  store i32 1, ptr %11, align 4
  br label %51

51:                                               ; preds = %48, %16
  call void @llvm.lifetime.end.p0(i64 8, ptr %10) #11
  call void @llvm.lifetime.end.p0(i64 4, ptr %9) #11
  call void @llvm.lifetime.end.p0(i64 4, ptr %8) #11
  %52 = load i32, ptr %4, align 4
  ret i32 %52
}