; Function Attrs: nofree nounwind uwtable
define range(i32 0, 2) i32 @Gia_ManSimWriteFile(ptr noundef readonly captures(none) %0, ptr noundef readonly captures(none) %1, i32 noundef %2) local_unnamed_addr #11 {
  %4 = tail call noalias ptr @fopen(ptr noundef %0, ptr noundef nonnull @.str.11)
  %5 = icmp eq ptr %4, null
  br i1 %5, label %10, label %.preheader

.preheader:                                       ; preds = %3
  %6 = getelementptr i8, ptr %1, i64 4
  %.val17 = load i32, ptr %6, align 4, !tbaa !34
  %7 = icmp sgt i32 %.val17, 0
  br i1 %7, label %.lr.ph, label %.critedge

.lr.ph:                                           ; preds = %.preheader
  %8 = getelementptr i8, ptr %1, i64 8
  %9 = add nsw i32 %2, -1
  br label %11

10:                                               ; preds = %3
  %puts = tail call i32 @puts(ptr nonnull dereferenceable(1) @str.1)
  br label %25

11:                                               ; preds = %.lr.ph, %21
  %indvars.iv = phi i64 [ 0, %.lr.ph ], [ %indvars.iv.next, %21 ]
  %.val16 = load ptr, ptr %8, align 8, !tbaa !36
  %12 = getelementptr inbounds nuw i32, ptr %.val16, i64 %indvars.iv
  %13 = load i32, ptr %12, align 4, !tbaa !37
  %14 = add nsw i32 %13, 48
  %15 = tail call i32 @fputc(i32 noundef %14, ptr noundef nonnull %4)
  %16 = trunc nuw nsw i64 %indvars.iv to i32
  %17 = srem i32 %16, %2
  %18 = icmp eq i32 %17, %9
  br i1 %18, label %19, label %21

19:                                               ; preds = %11
  %20 = tail call i32 @fputc(i32 noundef 10, ptr noundef nonnull %4)
  br label %21

21:                                               ; preds = %11, %19
  %indvars.iv.next = add nuw nsw i64 %indvars.iv, 1
  %.val = load i32, ptr %6, align 4, !tbaa !34
  %22 = sext i32 %.val to i64
  %23 = icmp slt i64 %indvars.iv.next, %22
  br i1 %23, label %11, label %.critedge, !llvm.loop !102

.critedge:                                        ; preds = %21, %.preheader
  %24 = tail call i32 @fclose(ptr noundef nonnull %4)
  br label %25

25:                                               ; preds = %.critedge, %10
  %.0 = phi i32 [ 0, %10 ], [ 1, %.critedge ]
  ret i32 %.0
}